target datalayout = "e-m:e-p270:32:32-p271:32:32-p272:64:64-i64:64-i128:128-f80:128-n8:16:32:64-S128"
target triple = "x86_64-pc-linux-gnu"

%struct.StringInfoData = type { ptr, i32, i32, i32 }

; Function Attrs: nounwind uwtable
define dso_local void @pg_split_opts(ptr noundef %0, ptr noundef %1, ptr noundef %2) #0 {
  %4 = alloca ptr, align 8
  %5 = alloca ptr, align 8
  %6 = alloca ptr, align 8
  %7 = alloca %struct.StringInfoData, align 8
  %8 = alloca i8, align 1
  %9 = alloca i32, align 4
  store ptr %0, ptr %4, align 8
  store ptr %1, ptr %5, align 8
  store ptr %2, ptr %6, align 8
  call void @llvm.lifetime.start.p0(i64 24, ptr %7) #8
  call void @initStringInfo(ptr noundef %7)
  br label %10

10:                                               ; preds = %84, %3
  %11 = load ptr, ptr %6, align 8
  %12 = load i8, ptr %11, align 1
  %13 = icmp ne i8 %12, 0
  br i1 %13, label %14, label %85

14:                                               ; preds = %10
  call void @llvm.lifetime.start.p0(i64 1, ptr %8) #8
  store i8 0, ptr %8, align 1
  call void @resetStringInfo(ptr noundef %7)
  br label %15

15:                                               ; preds = %27, %14
  %16 = call ptr @__ctype_b_loc() #9
  %17 = load ptr, ptr %16, align 8
  %18 = load ptr, ptr %6, align 8
  %19 = load i8, ptr %18, align 1
  %20 = zext i8 %19 to i32
  %21 = sext i32 %20 to i64
  %22 = getelementptr inbounds i16, ptr %17, i64 %21
  %23 = load i16, ptr %22, align 2
  %24 = zext i16 %23 to i32
  %25 = and i32 %24, 8192
  %26 = icmp ne i32 %25, 0
  br i1 %26, label %27, label %30

27:                                               ; preds = %15
  %28 = load ptr, ptr %6, align 8
  %29 = getelementptr inbounds nuw i8, ptr %28, i32 1
  store ptr %29, ptr %6, align 8
  br label %15, !llvm.loop !4

30:                                               ; preds = %15
  %31 = load ptr, ptr %6, align 8
  %32 = load i8, ptr %31, align 1
  %33 = sext i8 %32 to i32
  %34 = icmp eq i32 %33, 0
  br i1 %34, label %35, label %36

35:                                               ; preds = %30
  store i32 3, ptr %9, align 4
  br label %82

36:                                               ; preds = %30
  br label %37

37:                                               ; preds = %69, %36
  %38 = load ptr, ptr %6, align 8
  %39 = load i8, ptr %38, align 1
  %40 = icmp ne i8 %39, 0
  br i1 %40, label %41, label %72

41:                                               ; preds = %37
  %42 = call ptr @__ctype_b_loc() #9
  %43 = load ptr, ptr %42, align 8
  %44 = load ptr, ptr %6, align 8
  %45 = load i8, ptr %44, align 1
  %46 = zext i8 %45 to i32
  %47 = sext i32 %46 to i64
  %48 = getelementptr inbounds i16, ptr %43, i64 %47
  %49 = load i16, ptr %48, align 2
  %50 = zext i16 %49 to i32
  %51 = and i32 %50, 8192
  %52 = icmp ne i32 %51, 0
  br i1 %52, label %53, label %57

53:                                               ; preds = %41
  %54 = load i8, ptr %8, align 1, !range !6, !noundef !7
  %55 = trunc i8 %54 to i1
  br i1 %55, label %57, label %56

56:                                               ; preds = %53
  br label %72

57:                                               ; preds = %53, %41
  %58 = load i8, ptr %8, align 1, !range !6, !noundef !7
  %59 = trunc i8 %58 to i1
  br i1 %59, label %66, label %60

60:                                               ; preds = %57
  %61 = load ptr, ptr %6, align 8
  %62 = load i8, ptr %61, align 1
  %63 = sext i8 %62 to i32
  %64 = icmp eq i32 %63, 92
  br i1 %64, label %65, label %66

65:                                               ; preds = %60
  store i8 1, ptr %8, align 1
  br label %69

66:                                               ; preds = %60, %57
  store i8 0, ptr %8, align 1
  %67 = load ptr, ptr %6, align 8
  %68 = load i8, ptr %67, align 1
  call void @appendStringInfoChar(ptr noundef %7, i8 noundef signext %68)
  br label %69

69:                                               ; preds = %66, %65
  %70 = load ptr, ptr %6, align 8
  %71 = getelementptr inbounds nuw i8, ptr %70, i32 1
  store ptr %71, ptr %6, align 8
  br label %37, !llvm.loop !8

72:                                               ; preds = %56, %37
  %73 = getelementptr inbounds nuw %struct.StringInfoData, ptr %7, i32 0, i32 0
  %74 = load ptr, ptr %73, align 8
  %75 = call ptr @pstrdup(ptr noundef %74)
  %76 = load ptr, ptr %4, align 8
  %77 = load ptr, ptr %5, align 8
  %78 = load i32, ptr %77, align 4
  %79 = add i32 %78, 1
  store i32 %79, ptr %77, align 4
  %80 = sext i32 %78 to i64
  %81 = getelementptr inbounds ptr, ptr %76, i64 %80
  store ptr %75, ptr %81, align 8
  store i32 0, ptr %9, align 4
  br label %82

82:                                               ; preds = %72, %35
  call void @llvm.lifetime.end.p0(i64 1, ptr %8) #8
  %83 = load i32, ptr %9, align 4
  switch i32 %83, label %88 [
    i32 0, label %84
    i32 3, label %85
  ]

84:                                               ; preds = %82
  br label %10, !llvm.loop !9

85:                                               ; preds = %82, %10
  %86 = getelementptr inbounds nuw %struct.StringInfoData, ptr %7, i32 0, i32 0
  %87 = load ptr, ptr %86, align 8
  call void @pfree(ptr noundef %87)
  call void @llvm.lifetime.end.p0(i64 24, ptr %7) #8
  ret void

88:                                               ; preds = %82
  unreachable
}