; Function Attrs: nounwind uwtable
define dso_local void @pg_split_opts(ptr noundef writeonly captures(none) %0, ptr noundef captures(none) %1, ptr noundef readonly captures(none) %2) local_unnamed_addr #0 {
  %4 = alloca %struct.StringInfoData, align 8
  call void @llvm.lifetime.start.p0(i64 24, ptr nonnull %4) #12
  call void @initStringInfo(ptr noundef nonnull %4) #12
  %5 = load i8, ptr %2, align 1
  %.not33 = icmp eq i8 %5, 0
  br i1 %.not33, label %.thread20, label %.lr.ph36

.lr.ph36:                                         ; preds = %3, %._crit_edge
  %.01434 = phi ptr [ %.3.lcssa.ph, %._crit_edge ], [ %2, %3 ]
  call void @resetStringInfo(ptr noundef nonnull %4) #12
  %6 = tail call ptr @__ctype_b_loc() #13
  %7 = load ptr, ptr %6, align 8
  br label %8

8:                                                ; preds = %8, %.lr.ph36
  %.115 = phi ptr [ %.01434, %.lr.ph36 ], [ %14, %8 ]
  %9 = load i8, ptr %.115, align 1
  %10 = zext i8 %9 to i64
  %11 = getelementptr inbounds nuw i16, ptr %7, i64 %10
  %12 = load i16, ptr %11, align 2
  %13 = and i16 %12, 8192
  %.not17 = icmp eq i16 %13, 0
  %14 = getelementptr inbounds nuw i8, ptr %.115, i64 1
  br i1 %.not17, label %15, label %8, !llvm.loop !4

15:                                               ; preds = %8
  %16 = icmp eq i8 %9, 0
  br i1 %16, label %.thread20, label %.lr.ph

.lr.ph:                                           ; preds = %15, %26
  %17 = phi i8 [ %28, %26 ], [ %9, %15 ]
  %.01330 = phi i1 [ %.1, %26 ], [ false, %15 ]
  %.328 = phi ptr [ %27, %26 ], [ %.115, %15 ]
  %18 = load ptr, ptr %6, align 8
  %19 = zext i8 %17 to i64
  %20 = getelementptr inbounds nuw i16, ptr %18, i64 %19
  %21 = load i16, ptr %20, align 2
  %22 = and i16 %21, 8192
  %.not19 = icmp eq i16 %22, 0
  br i1 %.not19, label %24, label %23

23:                                               ; preds = %.lr.ph
  br i1 %.01330, label %.thread, label %._crit_edge

24:                                               ; preds = %.lr.ph
  %25 = icmp ne i8 %17, 92
  %or.cond.not = or i1 %25, %.01330
  br i1 %or.cond.not, label %.thread, label %26

.thread:                                          ; preds = %23, %24
  call void @appendStringInfoChar(ptr noundef nonnull %4, i8 noundef signext %17) #12
  br label %26

26:                                               ; preds = %24, %.thread
  %.1 = phi i1 [ false, %.thread ], [ true, %24 ]
  %27 = getelementptr inbounds nuw i8, ptr %.328, i64 1
  %28 = load i8, ptr %27, align 1
  %.not18 = icmp eq i8 %28, 0
  br i1 %.not18, label %._crit_edge, label %.lr.ph, !llvm.loop !6

._crit_edge:                                      ; preds = %23, %26
  %.3.lcssa.ph = phi ptr [ %.328, %23 ], [ %27, %26 ]
  %29 = load ptr, ptr %4, align 8
  %30 = call ptr @pstrdup(ptr noundef %29) #12
  %31 = load i32, ptr %1, align 4
  %32 = add i32 %31, 1
  store i32 %32, ptr %1, align 4
  %33 = sext i32 %31 to i64
  %34 = getelementptr inbounds ptr, ptr %0, i64 %33
  store ptr %30, ptr %34, align 8
  %35 = load i8, ptr %.3.lcssa.ph, align 1
  %.not = icmp eq i8 %35, 0
  br i1 %.not, label %.thread20, label %.lr.ph36

.thread20:                                        ; preds = %._crit_edge, %15, %3
  %36 = load ptr, ptr %4, align 8
  call void @pfree(ptr noundef %36) #12
  call void @llvm.lifetime.end.p0(i64 24, ptr nonnull %4) #12
  ret void
}